
bin\Release\AGV.elf:     file format elf32-avr

Sections:
Idx Name          Size      VMA       LMA       File off  Algn
  0 .data         00000004  00800200  0000074c  00000800  2**0
                  CONTENTS, ALLOC, LOAD, DATA
  1 .text         0000074c  00000000  00000000  000000b4  2**1
                  CONTENTS, ALLOC, LOAD, READONLY, CODE
  2 .bss          00000006  00800204  00800204  00000804  2**0
                  ALLOC
  3 .fuse         00000003  00820000  00820000  00000804  2**0
                  CONTENTS, ALLOC, LOAD, DATA

Disassembly of section .text:

00000000 <__vectors>:
   0:	0c 94 72 00 	jmp	0xe4	; 0xe4 <__ctors_end>
   4:	0c 94 ab 01 	jmp	0x356	; 0x356 <__vector_1>
   8:	0c 94 93 00 	jmp	0x126	; 0x126 <__bad_interrupt>
   c:	0c 94 93 00 	jmp	0x126	; 0x126 <__bad_interrupt>
  10:	0c 94 93 00 	jmp	0x126	; 0x126 <__bad_interrupt>
  14:	0c 94 93 00 	jmp	0x126	; 0x126 <__bad_interrupt>
  18:	0c 94 93 00 	jmp	0x126	; 0x126 <__bad_interrupt>
  1c:	0c 94 93 00 	jmp	0x126	; 0x126 <__bad_interrupt>
  20:	0c 94 93 00 	jmp	0x126	; 0x126 <__bad_interrupt>
  24:	0c 94 93 00 	jmp	0x126	; 0x126 <__bad_interrupt>
  28:	0c 94 93 00 	jmp	0x126	; 0x126 <__bad_interrupt>
  2c:	0c 94 93 00 	jmp	0x126	; 0x126 <__bad_interrupt>
  30:	0c 94 93 00 	jmp	0x126	; 0x126 <__bad_interrupt>
  34:	0c 94 3f 01 	jmp	0x27e	; 0x27e <__vector_13>
  38:	0c 94 54 01 	jmp	0x2a8	; 0x2a8 <__vector_14>
  3c:	0c 94 0f 01 	jmp	0x21e	; 0x21e <__vector_15>
  40:	0c 94 93 00 	jmp	0x126	; 0x126 <__bad_interrupt>
  44:	0c 94 93 00 	jmp	0x126	; 0x126 <__bad_interrupt>
  48:	0c 94 93 00 	jmp	0x126	; 0x126 <__bad_interrupt>
  4c:	0c 94 93 00 	jmp	0x126	; 0x126 <__bad_interrupt>
  50:	0c 94 93 00 	jmp	0x126	; 0x126 <__bad_interrupt>
  54:	0c 94 b5 00 	jmp	0x16a	; 0x16a <__vector_21>
  58:	0c 94 c5 00 	jmp	0x18a	; 0x18a <__vector_22>
  5c:	0c 94 95 00 	jmp	0x12a	; 0x12a <__vector_23>
  60:	0c 94 93 00 	jmp	0x126	; 0x126 <__bad_interrupt>
  64:	0c 94 93 00 	jmp	0x126	; 0x126 <__bad_interrupt>
  68:	0c 94 93 00 	jmp	0x126	; 0x126 <__bad_interrupt>
  6c:	0c 94 93 00 	jmp	0x126	; 0x126 <__bad_interrupt>
  70:	0c 94 93 00 	jmp	0x126	; 0x126 <__bad_interrupt>
  74:	0c 94 93 00 	jmp	0x126	; 0x126 <__bad_interrupt>
  78:	0c 94 93 00 	jmp	0x126	; 0x126 <__bad_interrupt>
  7c:	0c 94 93 00 	jmp	0x126	; 0x126 <__bad_interrupt>
  80:	0c 94 93 00 	jmp	0x126	; 0x126 <__bad_interrupt>
  84:	0c 94 93 00 	jmp	0x126	; 0x126 <__bad_interrupt>
  88:	0c 94 93 00 	jmp	0x126	; 0x126 <__bad_interrupt>
  8c:	0c 94 93 00 	jmp	0x126	; 0x126 <__bad_interrupt>
  90:	0c 94 93 00 	jmp	0x126	; 0x126 <__bad_interrupt>
  94:	0c 94 93 00 	jmp	0x126	; 0x126 <__bad_interrupt>
  98:	0c 94 93 00 	jmp	0x126	; 0x126 <__bad_interrupt>
  9c:	0c 94 93 00 	jmp	0x126	; 0x126 <__bad_interrupt>
  a0:	0c 94 93 00 	jmp	0x126	; 0x126 <__bad_interrupt>
  a4:	0c 94 93 00 	jmp	0x126	; 0x126 <__bad_interrupt>
  a8:	0c 94 93 00 	jmp	0x126	; 0x126 <__bad_interrupt>
  ac:	0c 94 93 00 	jmp	0x126	; 0x126 <__bad_interrupt>
  b0:	0c 94 93 00 	jmp	0x126	; 0x126 <__bad_interrupt>
  b4:	0c 94 93 00 	jmp	0x126	; 0x126 <__bad_interrupt>
  b8:	0c 94 93 00 	jmp	0x126	; 0x126 <__bad_interrupt>
  bc:	0c 94 93 00 	jmp	0x126	; 0x126 <__bad_interrupt>
  c0:	0c 94 93 00 	jmp	0x126	; 0x126 <__bad_interrupt>
  c4:	0c 94 93 00 	jmp	0x126	; 0x126 <__bad_interrupt>
  c8:	0c 94 93 00 	jmp	0x126	; 0x126 <__bad_interrupt>
  cc:	0c 94 93 00 	jmp	0x126	; 0x126 <__bad_interrupt>
  d0:	0c 94 93 00 	jmp	0x126	; 0x126 <__bad_interrupt>
  d4:	0c 94 93 00 	jmp	0x126	; 0x126 <__bad_interrupt>
  d8:	0c 94 93 00 	jmp	0x126	; 0x126 <__bad_interrupt>
  dc:	0c 94 93 00 	jmp	0x126	; 0x126 <__bad_interrupt>
  e0:	0c 94 93 00 	jmp	0x126	; 0x126 <__bad_interrupt>

000000e4 <__ctors_end>:
  e4:	11 24       	eor	r1, r1
  e6:	1f be       	out	0x3f, r1	; 63
  e8:	cf ef       	ldi	r28, 0xFF	; 255
  ea:	d1 e2       	ldi	r29, 0x21	; 33
  ec:	de bf       	out	0x3e, r29	; 62
  ee:	cd bf       	out	0x3d, r28	; 61
  f0:	00 e0       	ldi	r16, 0x00	; 0
  f2:	0c bf       	out	0x3c, r16	; 60

000000f4 <__do_copy_data>:
  f4:	12 e0       	ldi	r17, 0x02	; 2
  f6:	a0 e0       	ldi	r26, 0x00	; 0
  f8:	b2 e0       	ldi	r27, 0x02	; 2
  fa:	ec e4       	ldi	r30, 0x4C	; 76
  fc:	f7 e0       	ldi	r31, 0x07	; 7
  fe:	00 e0       	ldi	r16, 0x00	; 0
 100:	0b bf       	out	0x3b, r16	; 59
 102:	02 c0       	rjmp	.+4      	; 0x108 <__do_copy_data+0x14>
 104:	07 90       	elpm	r0, Z+
 106:	0d 92       	st	X+, r0
 108:	a4 30       	cpi	r26, 0x04	; 4
 10a:	b1 07       	cpc	r27, r17
 10c:	d9 f7       	brne	.-10     	; 0x104 <__do_copy_data+0x10>

0000010e <__do_clear_bss>:
 10e:	12 e0       	ldi	r17, 0x02	; 2
 110:	a4 e0       	ldi	r26, 0x04	; 4
 112:	b2 e0       	ldi	r27, 0x02	; 2
 114:	01 c0       	rjmp	.+2      	; 0x118 <.do_clear_bss_start>

00000116 <.do_clear_bss_loop>:
 116:	1d 92       	st	X+, r1

00000118 <.do_clear_bss_start>:
 118:	aa 30       	cpi	r26, 0x0A	; 10
 11a:	b1 07       	cpc	r27, r17
 11c:	e1 f7       	brne	.-8      	; 0x116 <.do_clear_bss_loop>
 11e:	0e 94 24 03 	call	0x648	; 0x648 <main>
 122:	0c 94 a4 03 	jmp	0x748	; 0x748 <_exit>

00000126 <__bad_interrupt>:
 126:	0c 94 00 00 	jmp	0	; 0x0 <__vectors>

0000012a <__vector_23>:
 12a:	1f 92       	push	r1
 12c:	0f 92       	push	r0
 12e:	0f b6       	in	r0, 0x3f	; 63
 130:	0f 92       	push	r0
 132:	11 24       	eor	r1, r1
 134:	8f 93       	push	r24
 136:	87 b5       	in	r24, 0x27	; 39
 138:	88 23       	and	r24, r24
 13a:	31 f4       	brne	.+12     	; 0x148 <__vector_23+0x1e>
 13c:	88 b5       	in	r24, 0x28	; 40
 13e:	88 23       	and	r24, r24
 140:	19 f4       	brne	.+6      	; 0x148 <__vector_23+0x1e>
 142:	a5 98       	cbi	0x14, 5	; 20
 144:	2f 98       	cbi	0x05, 7	; 5
 146:	0b c0       	rjmp	.+22     	; 0x15e <__vector_23+0x34>
 148:	87 b5       	in	r24, 0x27	; 39
 14a:	88 23       	and	r24, r24
 14c:	19 f0       	breq	.+6      	; 0x154 <__vector_23+0x2a>
 14e:	2f 98       	cbi	0x05, 7	; 5
 150:	a5 9a       	sbi	0x14, 5	; 20
 152:	05 c0       	rjmp	.+10     	; 0x15e <__vector_23+0x34>
 154:	88 b5       	in	r24, 0x28	; 40
 156:	88 23       	and	r24, r24
 158:	11 f0       	breq	.+4      	; 0x15e <__vector_23+0x34>
 15a:	a5 98       	cbi	0x14, 5	; 20
 15c:	2f 9a       	sbi	0x05, 7	; 5
 15e:	8f 91       	pop	r24
 160:	0f 90       	pop	r0
 162:	0f be       	out	0x3f, r0	; 63
 164:	0f 90       	pop	r0
 166:	1f 90       	pop	r1
 168:	18 95       	reti

0000016a <__vector_21>:
 16a:	1f 92       	push	r1
 16c:	0f 92       	push	r0
 16e:	0f b6       	in	r0, 0x3f	; 63
 170:	0f 92       	push	r0
 172:	11 24       	eor	r1, r1
 174:	8f 93       	push	r24
 176:	87 b5       	in	r24, 0x27	; 39
 178:	8f 3f       	cpi	r24, 0xFF	; 255
 17a:	09 f0       	breq	.+2      	; 0x17e <__vector_21+0x14>
 17c:	a5 98       	cbi	0x14, 5	; 20
 17e:	8f 91       	pop	r24
 180:	0f 90       	pop	r0
 182:	0f be       	out	0x3f, r0	; 63
 184:	0f 90       	pop	r0
 186:	1f 90       	pop	r1
 188:	18 95       	reti

0000018a <__vector_22>:
 18a:	1f 92       	push	r1
 18c:	0f 92       	push	r0
 18e:	0f b6       	in	r0, 0x3f	; 63
 190:	0f 92       	push	r0
 192:	11 24       	eor	r1, r1
 194:	8f 93       	push	r24
 196:	88 b5       	in	r24, 0x28	; 40
 198:	8f 3f       	cpi	r24, 0xFF	; 255
 19a:	09 f0       	breq	.+2      	; 0x19e <__vector_22+0x14>
 19c:	2f 98       	cbi	0x05, 7	; 5
 19e:	8f 91       	pop	r24
 1a0:	0f 90       	pop	r0
 1a2:	0f be       	out	0x3f, r0	; 63
 1a4:	0f 90       	pop	r0
 1a6:	1f 90       	pop	r1
 1a8:	18 95       	reti

000001aa <init_h_bridge_a>:
 1aa:	9d 9a       	sbi	0x13, 5	; 19
 1ac:	27 9a       	sbi	0x04, 7	; 4
 1ae:	a5 98       	cbi	0x14, 5	; 20
 1b0:	2f 98       	cbi	0x05, 7	; 5
 1b2:	14 bc       	out	0x24, r1	; 36
 1b4:	83 e0       	ldi	r24, 0x03	; 3
 1b6:	85 bd       	out	0x25, r24	; 37
 1b8:	17 bc       	out	0x27, r1	; 39
 1ba:	18 bc       	out	0x28, r1	; 40
 1bc:	87 e0       	ldi	r24, 0x07	; 7
 1be:	80 93 6e 00 	sts	0x006E, r24
 1c2:	78 94       	sei
 1c4:	08 95       	ret

000001c6 <h_bridge_set_percentage_a>:
 1c6:	98 2f       	mov	r25, r24
 1c8:	8c 59       	subi	r24, 0x9C	; 156
 1ca:	89 3c       	cpi	r24, 0xC9	; 201
 1cc:	38 f5       	brcc	.+78     	; 0x21c <h_bridge_set_percentage_a+0x56>
 1ce:	29 2f       	mov	r18, r25
 1d0:	33 27       	eor	r19, r19
 1d2:	27 fd       	sbrc	r18, 7
 1d4:	30 95       	com	r19
 1d6:	97 fd       	sbrc	r25, 7
 1d8:	11 c0       	rjmp	.+34     	; 0x1fc <h_bridge_set_percentage_a+0x36>
 1da:	18 bc       	out	0x28, r1	; 40
 1dc:	8f ef       	ldi	r24, 0xFF	; 255
 1de:	90 e0       	ldi	r25, 0x00	; 0
 1e0:	ac 01       	movw	r20, r24
 1e2:	24 9f       	mul	r18, r20
 1e4:	c0 01       	movw	r24, r0
 1e6:	25 9f       	mul	r18, r21
 1e8:	90 0d       	add	r25, r0
 1ea:	34 9f       	mul	r19, r20
 1ec:	90 0d       	add	r25, r0
 1ee:	11 24       	eor	r1, r1
 1f0:	64 e6       	ldi	r22, 0x64	; 100
 1f2:	70 e0       	ldi	r23, 0x00	; 0
 1f4:	0e 94 7d 03 	call	0x6fa	; 0x6fa <__divmodhi4>
 1f8:	67 bd       	out	0x27, r22	; 39
 1fa:	08 95       	ret
 1fc:	17 bc       	out	0x27, r1	; 39
 1fe:	8f ef       	ldi	r24, 0xFF	; 255
 200:	90 e0       	ldi	r25, 0x00	; 0
 202:	ac 01       	movw	r20, r24
 204:	24 9f       	mul	r18, r20
 206:	c0 01       	movw	r24, r0
 208:	25 9f       	mul	r18, r21
 20a:	90 0d       	add	r25, r0
 20c:	34 9f       	mul	r19, r20
 20e:	90 0d       	add	r25, r0
 210:	11 24       	eor	r1, r1
 212:	6c e9       	ldi	r22, 0x9C	; 156
 214:	7f ef       	ldi	r23, 0xFF	; 255
 216:	0e 94 7d 03 	call	0x6fa	; 0x6fa <__divmodhi4>
 21a:	68 bd       	out	0x28, r22	; 40
 21c:	08 95       	ret

0000021e <__vector_15>:
 21e:	1f 92       	push	r1
 220:	0f 92       	push	r0
 222:	0f b6       	in	r0, 0x3f	; 63
 224:	0f 92       	push	r0
 226:	11 24       	eor	r1, r1
 228:	8f 93       	push	r24
 22a:	80 91 b3 00 	lds	r24, 0x00B3
 22e:	88 23       	and	r24, r24
 230:	59 f4       	brne	.+22     	; 0x248 <__vector_15+0x2a>
 232:	80 91 b4 00 	lds	r24, 0x00B4
 236:	88 23       	and	r24, r24
 238:	39 f4       	brne	.+14     	; 0x248 <__vector_15+0x2a>
 23a:	80 91 02 01 	lds	r24, 0x0102
 23e:	8f 7b       	andi	r24, 0xBF	; 191
 240:	80 93 02 01 	sts	0x0102, r24
 244:	2c 98       	cbi	0x05, 4	; 5
 246:	15 c0       	rjmp	.+42     	; 0x272 <__vector_15+0x54>
 248:	80 91 b3 00 	lds	r24, 0x00B3
 24c:	88 23       	and	r24, r24
 24e:	39 f0       	breq	.+14     	; 0x25e <__vector_15+0x40>
 250:	2c 98       	cbi	0x05, 4	; 5
 252:	80 91 02 01 	lds	r24, 0x0102
 256:	80 64       	ori	r24, 0x40	; 64
 258:	80 93 02 01 	sts	0x0102, r24
 25c:	0a c0       	rjmp	.+20     	; 0x272 <__vector_15+0x54>
 25e:	80 91 b4 00 	lds	r24, 0x00B4
 262:	88 23       	and	r24, r24
 264:	31 f0       	breq	.+12     	; 0x272 <__vector_15+0x54>
 266:	80 91 02 01 	lds	r24, 0x0102
 26a:	8f 7b       	andi	r24, 0xBF	; 191
 26c:	80 93 02 01 	sts	0x0102, r24
 270:	2c 9a       	sbi	0x05, 4	; 5
 272:	8f 91       	pop	r24
 274:	0f 90       	pop	r0
 276:	0f be       	out	0x3f, r0	; 63
 278:	0f 90       	pop	r0
 27a:	1f 90       	pop	r1
 27c:	18 95       	reti

0000027e <__vector_13>:
 27e:	1f 92       	push	r1
 280:	0f 92       	push	r0
 282:	0f b6       	in	r0, 0x3f	; 63
 284:	0f 92       	push	r0
 286:	11 24       	eor	r1, r1
 288:	8f 93       	push	r24
 28a:	80 91 b3 00 	lds	r24, 0x00B3
 28e:	8f 3f       	cpi	r24, 0xFF	; 255
 290:	29 f0       	breq	.+10     	; 0x29c <__vector_13+0x1e>
 292:	80 91 02 01 	lds	r24, 0x0102
 296:	8f 7b       	andi	r24, 0xBF	; 191
 298:	80 93 02 01 	sts	0x0102, r24
 29c:	8f 91       	pop	r24
 29e:	0f 90       	pop	r0
 2a0:	0f be       	out	0x3f, r0	; 63
 2a2:	0f 90       	pop	r0
 2a4:	1f 90       	pop	r1
 2a6:	18 95       	reti

000002a8 <__vector_14>:
 2a8:	1f 92       	push	r1
 2aa:	0f 92       	push	r0
 2ac:	0f b6       	in	r0, 0x3f	; 63
 2ae:	0f 92       	push	r0
 2b0:	11 24       	eor	r1, r1
 2b2:	8f 93       	push	r24
 2b4:	80 91 b4 00 	lds	r24, 0x00B4
 2b8:	8f 3f       	cpi	r24, 0xFF	; 255
 2ba:	09 f0       	breq	.+2      	; 0x2be <__vector_14+0x16>
 2bc:	2c 98       	cbi	0x05, 4	; 5
 2be:	8f 91       	pop	r24
 2c0:	0f 90       	pop	r0
 2c2:	0f be       	out	0x3f, r0	; 63
 2c4:	0f 90       	pop	r0
 2c6:	1f 90       	pop	r1
 2c8:	18 95       	reti

000002ca <init_h_bridge_b>:
 2ca:	0e 9a       	sbi	0x01, 6	; 1
 2cc:	24 9a       	sbi	0x04, 4	; 4
 2ce:	e2 e0       	ldi	r30, 0x02	; 2
 2d0:	f1 e0       	ldi	r31, 0x01	; 1
 2d2:	80 81       	ld	r24, Z
 2d4:	8f 7b       	andi	r24, 0xBF	; 191
 2d6:	80 83       	st	Z, r24
 2d8:	2c 98       	cbi	0x05, 4	; 5
 2da:	10 92 b0 00 	sts	0x00B0, r1
 2de:	83 e0       	ldi	r24, 0x03	; 3
 2e0:	80 93 b1 00 	sts	0x00B1, r24
 2e4:	10 92 b3 00 	sts	0x00B3, r1
 2e8:	10 92 b4 00 	sts	0x00B4, r1
 2ec:	87 e0       	ldi	r24, 0x07	; 7
 2ee:	80 93 70 00 	sts	0x0070, r24
 2f2:	78 94       	sei
 2f4:	08 95       	ret

000002f6 <h_bridge_set_percentage_b>:
 2f6:	98 2f       	mov	r25, r24
 2f8:	8c 59       	subi	r24, 0x9C	; 156
 2fa:	89 3c       	cpi	r24, 0xC9	; 201
 2fc:	58 f5       	brcc	.+86     	; 0x354 <h_bridge_set_percentage_b+0x5e>
 2fe:	29 2f       	mov	r18, r25
 300:	33 27       	eor	r19, r19
 302:	27 fd       	sbrc	r18, 7
 304:	30 95       	com	r19
 306:	97 fd       	sbrc	r25, 7
 308:	13 c0       	rjmp	.+38     	; 0x330 <h_bridge_set_percentage_b+0x3a>
 30a:	10 92 b4 00 	sts	0x00B4, r1
 30e:	8f ef       	ldi	r24, 0xFF	; 255
 310:	90 e0       	ldi	r25, 0x00	; 0
 312:	ac 01       	movw	r20, r24
 314:	24 9f       	mul	r18, r20
 316:	c0 01       	movw	r24, r0
 318:	25 9f       	mul	r18, r21
 31a:	90 0d       	add	r25, r0
 31c:	34 9f       	mul	r19, r20
 31e:	90 0d       	add	r25, r0
 320:	11 24       	eor	r1, r1
 322:	64 e6       	ldi	r22, 0x64	; 100
 324:	70 e0       	ldi	r23, 0x00	; 0
 326:	0e 94 7d 03 	call	0x6fa	; 0x6fa <__divmodhi4>
 32a:	60 93 b3 00 	sts	0x00B3, r22
 32e:	08 95       	ret
 330:	10 92 b3 00 	sts	0x00B3, r1
 334:	8f ef       	ldi	r24, 0xFF	; 255
 336:	90 e0       	ldi	r25, 0x00	; 0
 338:	ac 01       	movw	r20, r24
 33a:	24 9f       	mul	r18, r20
 33c:	c0 01       	movw	r24, r0
 33e:	25 9f       	mul	r18, r21
 340:	90 0d       	add	r25, r0
 342:	34 9f       	mul	r19, r20
 344:	90 0d       	add	r25, r0
 346:	11 24       	eor	r1, r1
 348:	6c e9       	ldi	r22, 0x9C	; 156
 34a:	7f ef       	ldi	r23, 0xFF	; 255
 34c:	0e 94 7d 03 	call	0x6fa	; 0x6fa <__divmodhi4>
 350:	60 93 b4 00 	sts	0x00B4, r22
 354:	08 95       	ret

00000356 <__vector_1>:
 356:	1f 92       	push	r1
 358:	0f 92       	push	r0
 35a:	0f b6       	in	r0, 0x3f	; 63
 35c:	0f 92       	push	r0
 35e:	11 24       	eor	r1, r1
 360:	5f 93       	push	r21
 362:	6f 93       	push	r22
 364:	7f 93       	push	r23
 366:	8f 93       	push	r24
 368:	9f 93       	push	r25
 36a:	af 93       	push	r26
 36c:	bf 93       	push	r27
 36e:	80 91 02 02 	lds	r24, 0x0202
 372:	90 91 03 02 	lds	r25, 0x0203
 376:	01 96       	adiw	r24, 0x01	; 1
 378:	90 93 03 02 	sts	0x0203, r25
 37c:	80 93 02 02 	sts	0x0202, r24
 380:	62 e0       	ldi	r22, 0x02	; 2
 382:	70 e0       	ldi	r23, 0x00	; 0
 384:	0e 94 7d 03 	call	0x6fa	; 0x6fa <__divmodhi4>
 388:	00 97       	sbiw	r24, 0x00	; 0
 38a:	19 f0       	breq	.+6      	; 0x392 <__vector_1+0x3c>
 38c:	01 97       	sbiw	r24, 0x01	; 1
 38e:	61 f4       	brne	.+24     	; 0x3a8 <__vector_1+0x52>
 390:	07 c0       	rjmp	.+14     	; 0x3a0 <__vector_1+0x4a>
 392:	81 e0       	ldi	r24, 0x01	; 1
 394:	90 e0       	ldi	r25, 0x00	; 0
 396:	90 93 01 02 	sts	0x0201, r25
 39a:	80 93 00 02 	sts	0x0200, r24
 39e:	04 c0       	rjmp	.+8      	; 0x3a8 <__vector_1+0x52>
 3a0:	10 92 01 02 	sts	0x0201, r1
 3a4:	10 92 00 02 	sts	0x0200, r1
 3a8:	bf 91       	pop	r27
 3aa:	af 91       	pop	r26
 3ac:	9f 91       	pop	r25
 3ae:	8f 91       	pop	r24
 3b0:	7f 91       	pop	r23
 3b2:	6f 91       	pop	r22
 3b4:	5f 91       	pop	r21
 3b6:	0f 90       	pop	r0
 3b8:	0f be       	out	0x3f, r0	; 63
 3ba:	0f 90       	pop	r0
 3bc:	1f 90       	pop	r1
 3be:	18 95       	reti

000003c0 <init_ir>:
 3c0:	3d 98       	cbi	0x07, 5	; 7
 3c2:	23 98       	cbi	0x04, 3	; 4
 3c4:	39 98       	cbi	0x07, 1	; 7
 3c6:	ea e0       	ldi	r30, 0x0A	; 10
 3c8:	f1 e0       	ldi	r31, 0x01	; 1
 3ca:	80 81       	ld	r24, Z
 3cc:	87 7f       	andi	r24, 0xF7	; 247
 3ce:	80 83       	st	Z, r24
 3d0:	80 81       	ld	r24, Z
 3d2:	8f 7d       	andi	r24, 0xDF	; 223
 3d4:	80 83       	st	Z, r24
 3d6:	08 95       	ret

000003d8 <init_overige_sensor>:
 3d8:	99 98       	cbi	0x13, 1	; 19
 3da:	80 98       	cbi	0x10, 0	; 16
 3dc:	82 98       	cbi	0x10, 2	; 16
 3de:	08 95       	ret

000003e0 <init_niet_sensor>:
 3e0:	08 98       	cbi	0x01, 0	; 1
 3e2:	0a 98       	cbi	0x01, 2	; 1
 3e4:	ea e0       	ldi	r30, 0x0A	; 10
 3e6:	f1 e0       	ldi	r31, 0x01	; 1
 3e8:	80 81       	ld	r24, Z
 3ea:	82 60       	ori	r24, 0x02	; 2
 3ec:	80 83       	st	Z, r24
 3ee:	08 95       	ret

000003f0 <init_interrupt>:
 3f0:	78 94       	sei
 3f2:	81 e0       	ldi	r24, 0x01	; 1
 3f4:	8d bb       	out	0x1d, r24	; 29
 3f6:	80 93 69 00 	sts	0x0069, r24
 3fa:	08 95       	ret

000003fc <zoemer_beep>:
 3fc:	80 91 0b 01 	lds	r24, 0x010B
 400:	82 60       	ori	r24, 0x02	; 2
 402:	80 93 0b 01 	sts	0x010B, r24
 406:	80 e0       	ldi	r24, 0x00	; 0
 408:	90 e0       	ldi	r25, 0x00	; 0
 40a:	20 e2       	ldi	r18, 0x20	; 32
 40c:	3e e4       	ldi	r19, 0x4E	; 78
 40e:	f9 01       	movw	r30, r18
 410:	31 97       	sbiw	r30, 0x01	; 1
 412:	f1 f7       	brne	.-4      	; 0x410 <zoemer_beep+0x14>
 414:	01 96       	adiw	r24, 0x01	; 1
 416:	84 31       	cpi	r24, 0x14	; 20
 418:	91 05       	cpc	r25, r1
 41a:	c9 f7       	brne	.-14     	; 0x40e <zoemer_beep+0x12>
 41c:	80 91 0b 01 	lds	r24, 0x010B
 420:	8d 7f       	andi	r24, 0xFD	; 253
 422:	80 93 0b 01 	sts	0x010B, r24
 426:	80 e0       	ldi	r24, 0x00	; 0
 428:	90 e0       	ldi	r25, 0x00	; 0
 42a:	20 e2       	ldi	r18, 0x20	; 32
 42c:	3e e4       	ldi	r19, 0x4E	; 78
 42e:	f9 01       	movw	r30, r18
 430:	31 97       	sbiw	r30, 0x01	; 1
 432:	f1 f7       	brne	.-4      	; 0x430 <zoemer_beep+0x34>
 434:	01 96       	adiw	r24, 0x01	; 1
 436:	84 31       	cpi	r24, 0x14	; 20
 438:	91 05       	cpc	r25, r1
 43a:	c9 f7       	brne	.-14     	; 0x42e <zoemer_beep+0x32>
 43c:	80 91 0b 01 	lds	r24, 0x010B
 440:	82 60       	ori	r24, 0x02	; 2
 442:	80 93 0b 01 	sts	0x010B, r24
 446:	80 e0       	ldi	r24, 0x00	; 0
 448:	90 e0       	ldi	r25, 0x00	; 0
 44a:	20 e2       	ldi	r18, 0x20	; 32
 44c:	3e e4       	ldi	r19, 0x4E	; 78
 44e:	f9 01       	movw	r30, r18
 450:	31 97       	sbiw	r30, 0x01	; 1
 452:	f1 f7       	brne	.-4      	; 0x450 <zoemer_beep+0x54>
 454:	01 96       	adiw	r24, 0x01	; 1
 456:	84 31       	cpi	r24, 0x14	; 20
 458:	91 05       	cpc	r25, r1
 45a:	c9 f7       	brne	.-14     	; 0x44e <zoemer_beep+0x52>
 45c:	80 91 0b 01 	lds	r24, 0x010B
 460:	8d 7f       	andi	r24, 0xFD	; 253
 462:	80 93 0b 01 	sts	0x010B, r24
 466:	08 95       	ret

00000468 <obstakel_detectie>:
 468:	06 c0       	rjmp	.+12     	; 0x476 <obstakel_detectie+0xe>
 46a:	80 e0       	ldi	r24, 0x00	; 0
 46c:	0e 94 e3 00 	call	0x1c6	; 0x1c6 <h_bridge_set_percentage_a>
 470:	80 e0       	ldi	r24, 0x00	; 0
 472:	0e 94 7b 01 	call	0x2f6	; 0x2f6 <h_bridge_set_percentage_b>
 476:	91 9b       	sbis	0x12, 1	; 18
 478:	f8 cf       	rjmp	.-16     	; 0x46a <obstakel_detectie+0x2>
 47a:	08 95       	ret

0000047c <boom_detectie>:
 47c:	80 91 09 01 	lds	r24, 0x0109
 480:	96 b1       	in	r25, 0x06	; 6
 482:	85 ff       	sbrs	r24, 5
 484:	02 c0       	rjmp	.+4      	; 0x48a <boom_detectie+0xe>
 486:	91 fd       	sbrc	r25, 1
 488:	24 c0       	rjmp	.+72     	; 0x4d2 <boom_detectie+0x56>
 48a:	80 e0       	ldi	r24, 0x00	; 0
 48c:	0e 94 e3 00 	call	0x1c6	; 0x1c6 <h_bridge_set_percentage_a>
 490:	80 e0       	ldi	r24, 0x00	; 0
 492:	0e 94 7b 01 	call	0x2f6	; 0x2f6 <h_bridge_set_percentage_b>
 496:	0e 94 fe 01 	call	0x3fc	; 0x3fc <zoemer_beep>
 49a:	80 e0       	ldi	r24, 0x00	; 0
 49c:	90 e0       	ldi	r25, 0x00	; 0
 49e:	20 e2       	ldi	r18, 0x20	; 32
 4a0:	3e e4       	ldi	r19, 0x4E	; 78
 4a2:	f9 01       	movw	r30, r18
 4a4:	31 97       	sbiw	r30, 0x01	; 1
 4a6:	f1 f7       	brne	.-4      	; 0x4a4 <boom_detectie+0x28>
 4a8:	01 96       	adiw	r24, 0x01	; 1
 4aa:	8a 3f       	cpi	r24, 0xFA	; 250
 4ac:	91 05       	cpc	r25, r1
 4ae:	c9 f7       	brne	.-14     	; 0x4a2 <boom_detectie+0x26>
 4b0:	82 e3       	ldi	r24, 0x32	; 50
 4b2:	0e 94 e3 00 	call	0x1c6	; 0x1c6 <h_bridge_set_percentage_a>
 4b6:	82 e3       	ldi	r24, 0x32	; 50
 4b8:	0e 94 7b 01 	call	0x2f6	; 0x2f6 <h_bridge_set_percentage_b>
 4bc:	80 e0       	ldi	r24, 0x00	; 0
 4be:	90 e0       	ldi	r25, 0x00	; 0
 4c0:	20 e2       	ldi	r18, 0x20	; 32
 4c2:	3e e4       	ldi	r19, 0x4E	; 78
 4c4:	f9 01       	movw	r30, r18
 4c6:	31 97       	sbiw	r30, 0x01	; 1
 4c8:	f1 f7       	brne	.-4      	; 0x4c6 <boom_detectie+0x4a>
 4ca:	01 96       	adiw	r24, 0x01	; 1
 4cc:	84 36       	cpi	r24, 0x64	; 100
 4ce:	91 05       	cpc	r25, r1
 4d0:	c9 f7       	brne	.-14     	; 0x4c4 <boom_detectie+0x48>
 4d2:	08 95       	ret

000004d4 <rand_detectie>:
 4d4:	1b 99       	sbic	0x03, 3	; 3
 4d6:	17 c0       	rjmp	.+46     	; 0x506 <rand_detectie+0x32>
 4d8:	80 91 06 02 	lds	r24, 0x0206
 4dc:	90 91 07 02 	lds	r25, 0x0207
 4e0:	8c 55       	subi	r24, 0x5C	; 92
 4e2:	94 44       	sbci	r25, 0x44	; 68
 4e4:	8c f5       	brge	.+98     	; 0x548 <rand_detectie+0x74>
 4e6:	83 e2       	ldi	r24, 0x23	; 35
 4e8:	0e 94 e3 00 	call	0x1c6	; 0x1c6 <h_bridge_set_percentage_a>
 4ec:	82 e3       	ldi	r24, 0x32	; 50
 4ee:	0e 94 7b 01 	call	0x2f6	; 0x2f6 <h_bridge_set_percentage_b>
 4f2:	80 91 06 02 	lds	r24, 0x0206
 4f6:	90 91 07 02 	lds	r25, 0x0207
 4fa:	01 96       	adiw	r24, 0x01	; 1
 4fc:	90 93 07 02 	sts	0x0207, r25
 500:	80 93 06 02 	sts	0x0206, r24
 504:	27 c0       	rjmp	.+78     	; 0x554 <rand_detectie+0x80>
 506:	80 91 09 01 	lds	r24, 0x0109
 50a:	83 fd       	sbrc	r24, 3
 50c:	17 c0       	rjmp	.+46     	; 0x53c <rand_detectie+0x68>
 50e:	80 91 04 02 	lds	r24, 0x0204
 512:	90 91 05 02 	lds	r25, 0x0205
 516:	8c 55       	subi	r24, 0x5C	; 92
 518:	94 44       	sbci	r25, 0x44	; 68
 51a:	b4 f4       	brge	.+44     	; 0x548 <rand_detectie+0x74>
 51c:	82 e3       	ldi	r24, 0x32	; 50
 51e:	0e 94 e3 00 	call	0x1c6	; 0x1c6 <h_bridge_set_percentage_a>
 522:	83 e2       	ldi	r24, 0x23	; 35
 524:	0e 94 7b 01 	call	0x2f6	; 0x2f6 <h_bridge_set_percentage_b>
 528:	80 91 04 02 	lds	r24, 0x0204
 52c:	90 91 05 02 	lds	r25, 0x0205
 530:	01 96       	adiw	r24, 0x01	; 1
 532:	90 93 05 02 	sts	0x0205, r25
 536:	80 93 04 02 	sts	0x0204, r24
 53a:	0c c0       	rjmp	.+24     	; 0x554 <rand_detectie+0x80>
 53c:	80 91 09 01 	lds	r24, 0x0109
 540:	83 ff       	sbrs	r24, 3
 542:	08 c0       	rjmp	.+16     	; 0x554 <rand_detectie+0x80>
 544:	1b 9b       	sbis	0x03, 3	; 3
 546:	06 c0       	rjmp	.+12     	; 0x554 <rand_detectie+0x80>
 548:	82 e3       	ldi	r24, 0x32	; 50
 54a:	0e 94 e3 00 	call	0x1c6	; 0x1c6 <h_bridge_set_percentage_a>
 54e:	82 e3       	ldi	r24, 0x32	; 50
 550:	0e 94 7b 01 	call	0x2f6	; 0x2f6 <h_bridge_set_percentage_b>
 554:	80 91 09 01 	lds	r24, 0x0109
 558:	83 ff       	sbrs	r24, 3
 55a:	04 c0       	rjmp	.+8      	; 0x564 <rand_detectie+0x90>
 55c:	10 92 05 02 	sts	0x0205, r1
 560:	10 92 04 02 	sts	0x0204, r1
 564:	1b 9b       	sbis	0x03, 3	; 3
 566:	04 c0       	rjmp	.+8      	; 0x570 <rand_detectie+0x9c>
 568:	10 92 07 02 	sts	0x0207, r1
 56c:	10 92 06 02 	sts	0x0206, r1
 570:	0e 94 3e 02 	call	0x47c	; 0x47c <boom_detectie>
 574:	08 95       	ret

00000576 <bocht_maken_rechts>:
 576:	0f 93       	push	r16
 578:	1f 93       	push	r17
 57a:	cf 93       	push	r28
 57c:	df 93       	push	r29
 57e:	c0 e0       	ldi	r28, 0x00	; 0
 580:	d0 e0       	ldi	r29, 0x00	; 0
 582:	00 ea       	ldi	r16, 0xA0	; 160
 584:	1f e0       	ldi	r17, 0x0F	; 15
 586:	84 e1       	ldi	r24, 0x14	; 20
 588:	0e 94 e3 00 	call	0x1c6	; 0x1c6 <h_bridge_set_percentage_a>
 58c:	82 e3       	ldi	r24, 0x32	; 50
 58e:	0e 94 7b 01 	call	0x2f6	; 0x2f6 <h_bridge_set_percentage_b>
 592:	c8 01       	movw	r24, r16
 594:	01 97       	sbiw	r24, 0x01	; 1
 596:	f1 f7       	brne	.-4      	; 0x594 <bocht_maken_rechts+0x1e>
 598:	21 96       	adiw	r28, 0x01	; 1
 59a:	8b e0       	ldi	r24, 0x0B	; 11
 59c:	c4 35       	cpi	r28, 0x54	; 84
 59e:	d8 07       	cpc	r29, r24
 5a0:	91 f7       	brne	.-28     	; 0x586 <bocht_maken_rechts+0x10>
 5a2:	82 e3       	ldi	r24, 0x32	; 50
 5a4:	0e 94 e3 00 	call	0x1c6	; 0x1c6 <h_bridge_set_percentage_a>
 5a8:	82 e3       	ldi	r24, 0x32	; 50
 5aa:	0e 94 7b 01 	call	0x2f6	; 0x2f6 <h_bridge_set_percentage_b>
 5ae:	df 91       	pop	r29
 5b0:	cf 91       	pop	r28
 5b2:	1f 91       	pop	r17
 5b4:	0f 91       	pop	r16
 5b6:	08 95       	ret

000005b8 <bocht_maken_links>:
 5b8:	0f 93       	push	r16
 5ba:	1f 93       	push	r17
 5bc:	cf 93       	push	r28
 5be:	df 93       	push	r29
 5c0:	c0 e0       	ldi	r28, 0x00	; 0
 5c2:	d0 e0       	ldi	r29, 0x00	; 0
 5c4:	00 ea       	ldi	r16, 0xA0	; 160
 5c6:	1f e0       	ldi	r17, 0x0F	; 15
 5c8:	82 e3       	ldi	r24, 0x32	; 50
 5ca:	0e 94 e3 00 	call	0x1c6	; 0x1c6 <h_bridge_set_percentage_a>
 5ce:	84 e1       	ldi	r24, 0x14	; 20
 5d0:	0e 94 7b 01 	call	0x2f6	; 0x2f6 <h_bridge_set_percentage_b>
 5d4:	c8 01       	movw	r24, r16
 5d6:	01 97       	sbiw	r24, 0x01	; 1
 5d8:	f1 f7       	brne	.-4      	; 0x5d6 <bocht_maken_links+0x1e>
 5da:	21 96       	adiw	r28, 0x01	; 1
 5dc:	8b e0       	ldi	r24, 0x0B	; 11
 5de:	c4 35       	cpi	r28, 0x54	; 84
 5e0:	d8 07       	cpc	r29, r24
 5e2:	91 f7       	brne	.-28     	; 0x5c8 <bocht_maken_links+0x10>
 5e4:	82 e3       	ldi	r24, 0x32	; 50
 5e6:	0e 94 e3 00 	call	0x1c6	; 0x1c6 <h_bridge_set_percentage_a>
 5ea:	82 e3       	ldi	r24, 0x32	; 50
 5ec:	0e 94 7b 01 	call	0x2f6	; 0x2f6 <h_bridge_set_percentage_b>
 5f0:	df 91       	pop	r29
 5f2:	cf 91       	pop	r28
 5f4:	1f 91       	pop	r17
 5f6:	0f 91       	pop	r16
 5f8:	08 95       	ret

000005fa <bocht_detecie>:
 5fa:	35 99       	sbic	0x06, 5	; 6
 5fc:	0e c0       	rjmp	.+28     	; 0x61a <bocht_detecie+0x20>
 5fe:	0e 94 bb 02 	call	0x576	; 0x576 <bocht_maken_rechts>
 602:	80 91 08 02 	lds	r24, 0x0208
 606:	90 91 09 02 	lds	r25, 0x0209
 60a:	89 2b       	or	r24, r25
 60c:	31 f4       	brne	.+12     	; 0x61a <bocht_detecie+0x20>
 60e:	81 e0       	ldi	r24, 0x01	; 1
 610:	90 e0       	ldi	r25, 0x00	; 0
 612:	90 93 09 02 	sts	0x0209, r25
 616:	80 93 08 02 	sts	0x0208, r24
 61a:	35 9b       	sbis	0x06, 5	; 6
 61c:	04 c0       	rjmp	.+8      	; 0x626 <bocht_detecie+0x2c>
 61e:	10 92 09 02 	sts	0x0209, r1
 622:	10 92 08 02 	sts	0x0208, r1
 626:	08 95       	ret

00000628 <init>:
 628:	0e 94 e0 01 	call	0x3c0	; 0x3c0 <init_ir>
 62c:	0e 94 ec 01 	call	0x3d8	; 0x3d8 <init_overige_sensor>
 630:	0e 94 f0 01 	call	0x3e0	; 0x3e0 <init_niet_sensor>
 634:	0e 94 d5 00 	call	0x1aa	; 0x1aa <init_h_bridge_a>
 638:	0e 94 65 01 	call	0x2ca	; 0x2ca <init_h_bridge_b>
 63c:	78 94       	sei
 63e:	81 e0       	ldi	r24, 0x01	; 1
 640:	8d bb       	out	0x1d, r24	; 29
 642:	80 93 69 00 	sts	0x0069, r24
 646:	08 95       	ret

00000648 <main>:
 648:	cf 93       	push	r28
 64a:	df 93       	push	r29
 64c:	0e 94 14 03 	call	0x628	; 0x628 <init>
 650:	c0 e9       	ldi	r28, 0x90	; 144
 652:	d1 e0       	ldi	r29, 0x01	; 1
 654:	80 91 00 02 	lds	r24, 0x0200
 658:	90 91 01 02 	lds	r25, 0x0201
 65c:	81 30       	cpi	r24, 0x01	; 1
 65e:	91 05       	cpc	r25, r1
 660:	d1 f0       	breq	.+52     	; 0x696 <main+0x4e>
 662:	81 30       	cpi	r24, 0x01	; 1
 664:	91 05       	cpc	r25, r1
 666:	38 f0       	brcs	.+14     	; 0x676 <main+0x2e>
 668:	83 30       	cpi	r24, 0x03	; 3
 66a:	91 05       	cpc	r25, r1
 66c:	99 f1       	breq	.+102    	; 0x6d4 <main+0x8c>
 66e:	84 30       	cpi	r24, 0x04	; 4
 670:	91 05       	cpc	r25, r1
 672:	a1 f7       	brne	.-24     	; 0x65c <main+0x14>
 674:	36 c0       	rjmp	.+108    	; 0x6e2 <main+0x9a>
 676:	80 e0       	ldi	r24, 0x00	; 0
 678:	0e 94 e3 00 	call	0x1c6	; 0x1c6 <h_bridge_set_percentage_a>
 67c:	80 e0       	ldi	r24, 0x00	; 0
 67e:	0e 94 7b 01 	call	0x2f6	; 0x2f6 <h_bridge_set_percentage_b>
 682:	80 e1       	ldi	r24, 0x10	; 16
 684:	97 e2       	ldi	r25, 0x27	; 39
 686:	fe 01       	movw	r30, r28
 688:	31 97       	sbiw	r30, 0x01	; 1
 68a:	f1 f7       	brne	.-4      	; 0x688 <main+0x40>
 68c:	01 97       	sbiw	r24, 0x01	; 1
 68e:	d9 f7       	brne	.-10     	; 0x686 <main+0x3e>
 690:	0e 94 fe 01 	call	0x3fc	; 0x3fc <zoemer_beep>
 694:	df cf       	rjmp	.-66     	; 0x654 <main+0xc>
 696:	80 91 09 01 	lds	r24, 0x0109
 69a:	85 ff       	sbrs	r24, 5
 69c:	10 c0       	rjmp	.+32     	; 0x6be <main+0x76>
 69e:	31 9b       	sbis	0x06, 1	; 6
 6a0:	0e c0       	rjmp	.+28     	; 0x6be <main+0x76>
 6a2:	35 9b       	sbis	0x06, 5	; 6
 6a4:	0c c0       	rjmp	.+24     	; 0x6be <main+0x76>
 6a6:	1b 99       	sbic	0x03, 3	; 3
 6a8:	0a c0       	rjmp	.+20     	; 0x6be <main+0x76>
 6aa:	80 91 09 01 	lds	r24, 0x0109
 6ae:	83 fd       	sbrc	r24, 3
 6b0:	06 c0       	rjmp	.+12     	; 0x6be <main+0x76>
 6b2:	82 e3       	ldi	r24, 0x32	; 50
 6b4:	0e 94 e3 00 	call	0x1c6	; 0x1c6 <h_bridge_set_percentage_a>
 6b8:	82 e3       	ldi	r24, 0x32	; 50
 6ba:	0e 94 7b 01 	call	0x2f6	; 0x2f6 <h_bridge_set_percentage_b>
 6be:	0e 94 6a 02 	call	0x4d4	; 0x4d4 <rand_detectie>
 6c2:	0e 94 3e 02 	call	0x47c	; 0x47c <boom_detectie>
 6c6:	0e 94 6a 02 	call	0x4d4	; 0x4d4 <rand_detectie>
 6ca:	0e 94 fd 02 	call	0x5fa	; 0x5fa <bocht_detecie>
 6ce:	0e 94 6a 02 	call	0x4d4	; 0x4d4 <rand_detectie>
 6d2:	c0 cf       	rjmp	.-128    	; 0x654 <main+0xc>
 6d4:	80 e0       	ldi	r24, 0x00	; 0
 6d6:	0e 94 e3 00 	call	0x1c6	; 0x1c6 <h_bridge_set_percentage_a>
 6da:	80 e0       	ldi	r24, 0x00	; 0
 6dc:	0e 94 7b 01 	call	0x2f6	; 0x2f6 <h_bridge_set_percentage_b>
 6e0:	b9 cf       	rjmp	.-142    	; 0x654 <main+0xc>
 6e2:	c0 e2       	ldi	r28, 0x20	; 32
 6e4:	de e4       	ldi	r29, 0x4E	; 78
 6e6:	82 e3       	ldi	r24, 0x32	; 50
 6e8:	0e 94 e3 00 	call	0x1c6	; 0x1c6 <h_bridge_set_percentage_a>
 6ec:	89 e1       	ldi	r24, 0x19	; 25
 6ee:	0e 94 7b 01 	call	0x2f6	; 0x2f6 <h_bridge_set_percentage_b>
 6f2:	ce 01       	movw	r24, r28
 6f4:	01 97       	sbiw	r24, 0x01	; 1
 6f6:	f1 f7       	brne	.-4      	; 0x6f4 <main+0xac>
 6f8:	f6 cf       	rjmp	.-20     	; 0x6e6 <main+0x9e>

000006fa <__divmodhi4>:
 6fa:	97 fb       	bst	r25, 7
 6fc:	09 2e       	mov	r0, r25
 6fe:	07 26       	eor	r0, r23
 700:	0a d0       	rcall	.+20     	; 0x716 <__divmodhi4_neg1>
 702:	77 fd       	sbrc	r23, 7
 704:	04 d0       	rcall	.+8      	; 0x70e <__divmodhi4_neg2>
 706:	0c d0       	rcall	.+24     	; 0x720 <__udivmodhi4>
 708:	06 d0       	rcall	.+12     	; 0x716 <__divmodhi4_neg1>
 70a:	00 20       	and	r0, r0
 70c:	1a f4       	brpl	.+6      	; 0x714 <__divmodhi4_exit>

0000070e <__divmodhi4_neg2>:
 70e:	70 95       	com	r23
 710:	61 95       	neg	r22
 712:	7f 4f       	sbci	r23, 0xFF	; 255

00000714 <__divmodhi4_exit>:
 714:	08 95       	ret

00000716 <__divmodhi4_neg1>:
 716:	f6 f7       	brtc	.-4      	; 0x714 <__divmodhi4_exit>
 718:	90 95       	com	r25
 71a:	81 95       	neg	r24
 71c:	9f 4f       	sbci	r25, 0xFF	; 255
 71e:	08 95       	ret

00000720 <__udivmodhi4>:
 720:	aa 1b       	sub	r26, r26
 722:	bb 1b       	sub	r27, r27
 724:	51 e1       	ldi	r21, 0x11	; 17
 726:	07 c0       	rjmp	.+14     	; 0x736 <__udivmodhi4_ep>

00000728 <__udivmodhi4_loop>:
 728:	aa 1f       	adc	r26, r26
 72a:	bb 1f       	adc	r27, r27
 72c:	a6 17       	cp	r26, r22
 72e:	b7 07       	cpc	r27, r23
 730:	10 f0       	brcs	.+4      	; 0x736 <__udivmodhi4_ep>
 732:	a6 1b       	sub	r26, r22
 734:	b7 0b       	sbc	r27, r23

00000736 <__udivmodhi4_ep>:
 736:	88 1f       	adc	r24, r24
 738:	99 1f       	adc	r25, r25
 73a:	5a 95       	dec	r21
 73c:	a9 f7       	brne	.-22     	; 0x728 <__udivmodhi4_loop>
 73e:	80 95       	com	r24
 740:	90 95       	com	r25
 742:	bc 01       	movw	r22, r24
 744:	cd 01       	movw	r24, r26
 746:	08 95       	ret

00000748 <_exit>:
 748:	f8 94       	cli

0000074a <__stop_program>:
 74a:	ff cf       	rjmp	.-2      	; 0x74a <__stop_program>
